target datalayout = "e-m:e-p270:32:32-p271:32:32-p272:64:64-i64:64-i128:128-f80:128-n8:16:32:64-S128"
target triple = "x86_64-pc-linux-gnu"

%class.stack = type { ptr, ptr, ptr, ptr }

; Function Attrs: inlinehint mustprogress nounwind uwtable
define linkonce_odr hidden noundef i64 @_Z8ptr2markPvb(ptr noundef %0, i1 noundef zeroext %1) #9 comdat {
  %3 = alloca ptr, align 8
  %4 = alloca i8, align 1
  store ptr %0, ptr %3, align 8, !tbaa !19
  %5 = zext i1 %1 to i8
  store i8 %5, ptr %4, align 1, !tbaa !20
  %6 = load ptr, ptr %3, align 8, !tbaa !19
  %7 = ptrtoint ptr %6 to i64
  %8 = load i8, ptr %4, align 1, !tbaa !20, !range !22, !noundef !23
  %9 = trunc i8 %8 to i1
  %10 = zext i1 %9 to i64
  %11 = or i64 %7, %10
  ret i64 %11
}

; Function Attrs: inlinehint mustprogress nounwind uwtable
define linkonce_odr hidden void @_ZN5stack10store_markEm(ptr noundef nonnull align 8 dereferenceable(32) %0, i64 noundef %1) #9 comdat align 2 {
  %3 = alloca ptr, align 8
  %4 = alloca i64, align 8
  store ptr %0, ptr %3, align 8, !tbaa !3
  store i64 %1, ptr %4, align 8, !tbaa !14
  %5 = load ptr, ptr %3, align 8
  %6 = load i64, ptr %4, align 8, !tbaa !14
  %7 = getelementptr inbounds nuw %class.stack, ptr %5, i32 0, i32 1
  %8 = load ptr, ptr %7, align 8, !tbaa !11
  %9 = getelementptr inbounds i64, ptr %8, i64 0
  store i64 %6, ptr %9, align 8, !tbaa !14
  %10 = getelementptr inbounds nuw %class.stack, ptr %5, i32 0, i32 1
  %11 = load ptr, ptr %10, align 8, !tbaa !11
  %12 = getelementptr inbounds nuw i8, ptr %11, i64 8
  store ptr %12, ptr %10, align 8, !tbaa !11
  ret void
}

; Function Attrs: inlinehint mustprogress nounwind uwtable
define linkonce_odr hidden noundef ptr @_Z19end_of_default_pagePc(ptr noundef %0) #9 comdat {
  %2 = alloca ptr, align 8
  store ptr %0, ptr %2, align 8, !tbaa !18
  %3 = load ptr, ptr %2, align 8, !tbaa !18
  %4 = getelementptr inbounds nuw i8, ptr %3, i64 8184
  ret ptr %4
}

; Function Attrs: inlinehint mustprogress uwtable
define linkonce_odr hidden void @_ZN5stack10store_markEPvb(ptr noundef nonnull align 8 dereferenceable(32) %0, ptr noundef %1, i1 noundef zeroext %2) #5 comdat align 2 {
  %4 = alloca ptr, align 8
  %5 = alloca ptr, align 8
  %6 = alloca i8, align 1
  store ptr %0, ptr %4, align 8, !tbaa !3
  store ptr %1, ptr %5, align 8, !tbaa !19
  %7 = zext i1 %2 to i8
  store i8 %7, ptr %6, align 1, !tbaa !20
  %8 = load ptr, ptr %4, align 8
  %9 = getelementptr inbounds nuw %class.stack, ptr %8, i32 0, i32 1
  %10 = load ptr, ptr %9, align 8, !tbaa !11
  %11 = getelementptr inbounds nuw i8, ptr %10, i64 8
  %12 = getelementptr inbounds nuw %class.stack, ptr %8, i32 0, i32 2
  %13 = load ptr, ptr %12, align 8, !tbaa !12
  %14 = icmp ugt ptr %11, %13
  br i1 %14, label %15, label %20

15:                                               ; preds = %3
  %16 = load ptr, ptr %5, align 8, !tbaa !19
  %17 = load i8, ptr %6, align 1, !tbaa !20, !range !22, !noundef !23
  %18 = trunc i8 %17 to i1
  %19 = call noundef i64 @_Z8ptr2markPvb(ptr noundef %16, i1 noundef zeroext %18)
  call void @_ZN5stack13allocate_pageEm(ptr noundef nonnull align 8 dereferenceable(32) %8, i64 noundef %19)
  br label %25

20:                                               ; preds = %3
  %21 = load ptr, ptr %5, align 8, !tbaa !19
  %22 = load i8, ptr %6, align 1, !tbaa !20, !range !22, !noundef !23
  %23 = trunc i8 %22 to i1
  %24 = call noundef i64 @_Z8ptr2markPvb(ptr noundef %21, i1 noundef zeroext %23)
  call void @_ZN5stack10store_markEm(ptr noundef nonnull align 8 dereferenceable(32) %8, i64 noundef %24)
  br label %25

25:                                               ; preds = %20, %15
  ret void
}

; Function Attrs: inlinehint mustprogress uwtable
define linkonce_odr hidden void @_ZN5stack13allocate_pageEm(ptr noundef nonnull align 8 dereferenceable(32) %0, i64 noundef %1) #5 comdat align 2 {
  %3 = alloca ptr, align 8
  %4 = alloca i64, align 8
  store ptr %0, ptr %3, align 8, !tbaa !3
  store i64 %1, ptr %4, align 8, !tbaa !14
  %5 = load ptr, ptr %3, align 8
  %6 = getelementptr inbounds nuw %class.stack, ptr %5, i32 0, i32 0
  %7 = load ptr, ptr %6, align 8, !tbaa !8
  %8 = getelementptr inbounds nuw %class.stack, ptr %5, i32 0, i32 3
  %9 = call noundef ptr @_Z21allocate_default_pagePcRS_(ptr noundef %7, ptr noundef nonnull align 8 dereferenceable(8) %8)
  %10 = getelementptr inbounds nuw %class.stack, ptr %5, i32 0, i32 0
  store ptr %9, ptr %10, align 8, !tbaa !8
  %11 = getelementptr inbounds nuw %class.stack, ptr %5, i32 0, i32 0
  %12 = load ptr, ptr %11, align 8, !tbaa !8
  %13 = getelementptr inbounds nuw %class.stack, ptr %5, i32 0, i32 1
  store ptr %12, ptr %13, align 8, !tbaa !11
  %14 = getelementptr inbounds nuw %class.stack, ptr %5, i32 0, i32 0
  %15 = load ptr, ptr %14, align 8, !tbaa !8
  %16 = call noundef ptr @_Z19end_of_default_pagePc(ptr noundef %15)
  %17 = getelementptr inbounds nuw %class.stack, ptr %5, i32 0, i32 2
  store ptr %16, ptr %17, align 8, !tbaa !12
  %18 = load i64, ptr %4, align 8, !tbaa !14
  call void @_ZN5stack10store_markEm(ptr noundef nonnull align 8 dereferenceable(32) %5, i64 noundef %18)
  ret void
}

; Function Attrs: inlinehint mustprogress nounwind uwtable
define linkonce_odr hidden noundef i64 @_ZNK5stack8top_markEv(ptr noundef nonnull align 8 dereferenceable(32) %0) #9 comdat align 2 {
  %2 = alloca ptr, align 8
  store ptr %0, ptr %2, align 8, !tbaa !3
  %3 = load ptr, ptr %2, align 8
  %4 = getelementptr inbounds nuw %class.stack, ptr %3, i32 0, i32 1
  %5 = load ptr, ptr %4, align 8, !tbaa !11
  %6 = getelementptr inbounds i64, ptr %5, i64 -1
  %7 = load i64, ptr %6, align 8, !tbaa !14
  ret i64 %7
}

; Function Attrs: mustprogress uwtable
define hidden noundef ptr @_ZN5stack14allocate_smallEmb(ptr noundef nonnull align 8 dereferenceable(32) %0, i64 noundef %1, i1 noundef zeroext %2) #4 align 2 {
  %4 = alloca ptr, align 8
  %5 = alloca i64, align 8
  %6 = alloca i8, align 1
  %7 = alloca ptr, align 8
  %8 = alloca ptr, align 8
  store ptr %0, ptr %4, align 8, !tbaa !3
  store i64 %1, ptr %5, align 8, !tbaa !14
  %9 = zext i1 %2 to i8
  store i8 %9, ptr %6, align 1, !tbaa !20
  %10 = load ptr, ptr %4, align 8
  call void @llvm.lifetime.start.p0(i64 8, ptr %7) #3
  %11 = getelementptr inbounds nuw %class.stack, ptr %10, i32 0, i32 1
  %12 = load ptr, ptr %11, align 8, !tbaa !11
  %13 = load i64, ptr %5, align 8, !tbaa !14
  %14 = getelementptr inbounds nuw i8, ptr %12, i64 %13
  store ptr %14, ptr %7, align 8, !tbaa !18
  call void @llvm.lifetime.start.p0(i64 8, ptr %8) #3
  %15 = load ptr, ptr %7, align 8, !tbaa !18
  %16 = getelementptr inbounds nuw %class.stack, ptr %10, i32 0, i32 2
  %17 = load ptr, ptr %16, align 8, !tbaa !12
  %18 = icmp ult ptr %15, %17
  br i1 %18, label %19, label %34

19:                                               ; preds = %3
  %20 = getelementptr inbounds nuw %class.stack, ptr %10, i32 0, i32 1
  %21 = load ptr, ptr %20, align 8, !tbaa !11
  store ptr %21, ptr %8, align 8, !tbaa !18
  %22 = load ptr, ptr %7, align 8, !tbaa !18
  %23 = ptrtoint ptr %22 to i64
  %24 = lshr i64 %23, 3
  %25 = load ptr, ptr %7, align 8, !tbaa !18
  %26 = ptrtoint ptr %25 to i64
  %27 = and i64 %26, 7
  %28 = icmp ne i64 %27, 0
  %29 = zext i1 %28 to i64
  %30 = add i64 %24, %29
  %31 = shl i64 %30, 3
  %32 = inttoptr i64 %31 to ptr
  %33 = getelementptr inbounds nuw %class.stack, ptr %10, i32 0, i32 1
  store ptr %32, ptr %33, align 8, !tbaa !11
  br label %56

34:                                               ; preds = %3
  %35 = call noundef i64 @_ZNK5stack8top_markEv(ptr noundef nonnull align 8 dereferenceable(32) %10)
  call void @_ZN5stack13allocate_pageEm(ptr noundef nonnull align 8 dereferenceable(32) %10, i64 noundef %35)
  %36 = getelementptr inbounds nuw %class.stack, ptr %10, i32 0, i32 1
  %37 = load ptr, ptr %36, align 8, !tbaa !11
  store ptr %37, ptr %8, align 8, !tbaa !18
  %38 = load i64, ptr %5, align 8, !tbaa !14
  %39 = getelementptr inbounds nuw %class.stack, ptr %10, i32 0, i32 1
  %40 = load ptr, ptr %39, align 8, !tbaa !11
  %41 = getelementptr inbounds nuw i8, ptr %40, i64 %38
  store ptr %41, ptr %39, align 8, !tbaa !11
  %42 = getelementptr inbounds nuw %class.stack, ptr %10, i32 0, i32 1
  %43 = load ptr, ptr %42, align 8, !tbaa !11
  %44 = ptrtoint ptr %43 to i64
  %45 = lshr i64 %44, 3
  %46 = getelementptr inbounds nuw %class.stack, ptr %10, i32 0, i32 1
  %47 = load ptr, ptr %46, align 8, !tbaa !11
  %48 = ptrtoint ptr %47 to i64
  %49 = and i64 %48, 7
  %50 = icmp ne i64 %49, 0
  %51 = zext i1 %50 to i64
  %52 = add i64 %45, %51
  %53 = shl i64 %52, 3
  %54 = inttoptr i64 %53 to ptr
  %55 = getelementptr inbounds nuw %class.stack, ptr %10, i32 0, i32 1
  store ptr %54, ptr %55, align 8, !tbaa !11
  br label %56

56:                                               ; preds = %34, %19
  %57 = load ptr, ptr %8, align 8, !tbaa !18
  %58 = load i8, ptr %6, align 1, !tbaa !20, !range !22, !noundef !23
  %59 = trunc i8 %58 to i1
  call void @_ZN5stack10store_markEPvb(ptr noundef nonnull align 8 dereferenceable(32) %10, ptr noundef %57, i1 noundef zeroext %59)
  %60 = load ptr, ptr %8, align 8, !tbaa !18
  call void @llvm.lifetime.end.p0(i64 8, ptr %8) #3
  call void @llvm.lifetime.end.p0(i64 8, ptr %7) #3
  ret ptr %60
}