; Function Attrs: mustprogress uwtable
define hidden noundef ptr @_ZN5stack14allocate_smallEmb(ptr noundef nonnull align 8 dereferenceable(32) %0, i64 noundef %1, i1 noundef zeroext %2) local_unnamed_addr #3 align 2 {
  %4 = getelementptr inbounds nuw i8, ptr %0, i64 8
  %5 = load ptr, ptr %4, align 8, !tbaa !12
  %6 = getelementptr inbounds nuw i8, ptr %5, i64 %1
  %7 = getelementptr inbounds nuw i8, ptr %0, i64 16
  %8 = load ptr, ptr %7, align 8, !tbaa !9
  %9 = icmp ult ptr %6, %8
  br i1 %9, label %19, label %10

10:                                               ; preds = %3
  %11 = getelementptr inbounds i8, ptr %5, i64 -8
  %12 = load i64, ptr %11, align 8, !tbaa !10
  %13 = load ptr, ptr %0, align 8, !tbaa !3
  %14 = getelementptr inbounds nuw i8, ptr %0, i64 24
  %15 = tail call noundef ptr @_Z21allocate_default_pagePcRS_(ptr noundef %13, ptr noundef nonnull align 8 dereferenceable(8) %14)
  store ptr %15, ptr %0, align 8, !tbaa !3
  %16 = getelementptr inbounds nuw i8, ptr %15, i64 8184
  store ptr %16, ptr %7, align 8, !tbaa !9
  store i64 %12, ptr %15, align 8, !tbaa !10
  %17 = getelementptr inbounds nuw i8, ptr %15, i64 8
  %18 = getelementptr inbounds nuw i8, ptr %17, i64 %1
  br label %19

19:                                               ; preds = %3, %10
  %.sink = phi ptr [ %18, %10 ], [ %6, %3 ]
  %20 = phi ptr [ %16, %10 ], [ %8, %3 ]
  %.0 = phi ptr [ %17, %10 ], [ %5, %3 ]
  %21 = ptrtoint ptr %.sink to i64
  %22 = and i64 %21, 7
  %.not = icmp eq i64 %22, 0
  %23 = select i1 %.not, i64 0, i64 8
  %24 = add i64 %23, %21
  %storemerge.in = and i64 %24, -8
  %storemerge = inttoptr i64 %storemerge.in to ptr
  store ptr %storemerge, ptr %4, align 8, !tbaa !12
  %25 = getelementptr inbounds nuw i8, ptr %storemerge, i64 8
  %26 = icmp ugt ptr %25, %20
  %27 = ptrtoint ptr %.0 to i64
  %28 = zext i1 %2 to i64
  %29 = or i64 %27, %28
  br i1 %26, label %30, label %36

30:                                               ; preds = %19
  %31 = load ptr, ptr %0, align 8, !tbaa !3
  %32 = getelementptr inbounds nuw i8, ptr %0, i64 24
  %33 = tail call noundef ptr @_Z21allocate_default_pagePcRS_(ptr noundef %31, ptr noundef nonnull align 8 dereferenceable(8) %32)
  store ptr %33, ptr %0, align 8, !tbaa !3
  %34 = getelementptr inbounds nuw i8, ptr %33, i64 8184
  store ptr %34, ptr %7, align 8, !tbaa !9
  store i64 %29, ptr %33, align 8, !tbaa !10
  %35 = getelementptr inbounds nuw i8, ptr %33, i64 8
  br label %_ZN5stack10store_markEPvb.exit

36:                                               ; preds = %19
  store i64 %29, ptr %storemerge, align 8, !tbaa !10
  br label %_ZN5stack10store_markEPvb.exit

_ZN5stack10store_markEPvb.exit:                   ; preds = %30, %36
  %storemerge.i = phi ptr [ %25, %36 ], [ %35, %30 ]
  store ptr %storemerge.i, ptr %4, align 8, !tbaa !12
  ret ptr %.0
}